; Function Attrs: mustprogress uwtable
define void @_ZN7testing8internal8FilePath11ConcatPathsERKS1_S3_(ptr noalias sret(%"class.testing::internal::FilePath") align 8 %agg.result, ptr noundef nonnull align 8 dereferenceable(32) %directory, ptr noundef nonnull align 8 dereferenceable(32) %relative_path) local_unnamed_addr #3 align 2 personality ptr @__gxx_personality_v0 {
entry:
  %dir = alloca %"class.testing::internal::FilePath", align 8
  %ref.tmp = alloca %"class.std::__cxx11::basic_string", align 8
  %ref.tmp1 = alloca %"class.std::__cxx11::basic_string", align 8
  %call.i = tail call noundef zeroext i1 @_ZNKSt7__cxx1112basic_stringIcSt11char_traitsIcESaIcEE5emptyEv(ptr noundef nonnull align 8 dereferenceable(32) %directory) #47
  br i1 %call.i, label %if.then, label %if.end

if.then:                                          ; preds = %entry
  tail call void @_ZNSt7__cxx1112basic_stringIcSt11char_traitsIcESaIcEEC1ERKS4_(ptr noundef nonnull align 8 dereferenceable(32) %agg.result, ptr noundef nonnull align 8 dereferenceable(32) %relative_path)
  br label %return

if.end:                                           ; preds = %entry
  call void @_ZNK7testing8internal8FilePath27RemoveTrailingPathSeparatorEv(ptr nonnull sret(%"class.testing::internal::FilePath") align 8 %dir, ptr noundef nonnull align 8 dereferenceable(32) %directory)
  invoke void @_ZNSt7__cxx1112basic_stringIcSt11char_traitsIcESaIcEEC1ERKS4_(ptr noundef nonnull align 8 dereferenceable(32) %ref.tmp1, ptr noundef nonnull align 8 dereferenceable(32) %dir)
          to label %.noexc unwind label %lpad

.noexc:                                           ; preds = %if.end
  %call.i5 = invoke noundef nonnull align 8 dereferenceable(32) ptr @_ZNSt7__cxx1112basic_stringIcSt11char_traitsIcESaIcEE6appendEmc(ptr noundef nonnull align 8 dereferenceable(32) %ref.tmp1, i64 noundef 1, i8 noundef signext 47)
          to label %invoke.cont3 unwind label %lpad.i

lpad.i:                                           ; preds = %.noexc
  %0 = landingpad { ptr, i32 }
          cleanup
  call void @_ZNSt7__cxx1112basic_stringIcSt11char_traitsIcESaIcEED1Ev(ptr noundef nonnull align 8 dereferenceable(32) %ref.tmp1) #47
  br label %ehcleanup10

invoke.cont3:                                     ; preds = %.noexc
  %call.i67 = invoke noundef nonnull align 8 dereferenceable(32) ptr @_ZNSt7__cxx1112basic_stringIcSt11char_traitsIcESaIcEE6appendERKS4_(ptr noundef nonnull align 8 dereferenceable(32) %ref.tmp1, ptr noundef nonnull align 8 dereferenceable(32) %relative_path)
          to label %invoke.cont7 unwind label %lpad4

invoke.cont7:                                     ; preds = %invoke.cont3
  call void @_ZNSt7__cxx1112basic_stringIcSt11char_traitsIcESaIcEEC1EOS4_(ptr noundef nonnull align 8 dereferenceable(32) %ref.tmp, ptr noundef nonnull align 8 dereferenceable(32) %call.i67) #47
  invoke void @_ZNSt7__cxx1112basic_stringIcSt11char_traitsIcESaIcEEC1ERKS4_(ptr noundef nonnull align 8 dereferenceable(32) %agg.result, ptr noundef nonnull align 8 dereferenceable(32) %ref.tmp)
          to label %.noexc9 unwind label %lpad8

.noexc9:                                          ; preds = %invoke.cont7
  invoke void @_ZN7testing8internal8FilePath9NormalizeEv(ptr noundef nonnull align 8 dereferenceable(32) %agg.result)
          to label %invoke.cont9 unwind label %lpad.i8

lpad.i8:                                          ; preds = %.noexc9
  %1 = landingpad { ptr, i32 }
          cleanup
  call void @_ZNSt7__cxx1112basic_stringIcSt11char_traitsIcESaIcEED1Ev(ptr noundef nonnull align 8 dereferenceable(32) %agg.result) #47
  br label %lpad8.body

invoke.cont9:                                     ; preds = %.noexc9
  call void @_ZNSt7__cxx1112basic_stringIcSt11char_traitsIcESaIcEED1Ev(ptr noundef nonnull align 8 dereferenceable(32) %ref.tmp) #47
  call void @_ZNSt7__cxx1112basic_stringIcSt11char_traitsIcESaIcEED1Ev(ptr noundef nonnull align 8 dereferenceable(32) %ref.tmp1) #47
  call void @_ZNSt7__cxx1112basic_stringIcSt11char_traitsIcESaIcEED1Ev(ptr noundef nonnull align 8 dereferenceable(32) %dir) #47
  br label %return

lpad:                                             ; preds = %if.end
  %2 = landingpad { ptr, i32 }
          cleanup
  br label %ehcleanup10

lpad4:                                            ; preds = %invoke.cont3
  %3 = landingpad { ptr, i32 }
          cleanup
  br label %ehcleanup

lpad8:                                            ; preds = %invoke.cont7
  %4 = landingpad { ptr, i32 }
          cleanup
  br label %lpad8.body

lpad8.body:                                       ; preds = %lpad.i8, %lpad8
  %eh.lpad-body10 = phi { ptr, i32 } [ %4, %lpad8 ], [ %1, %lpad.i8 ]
  call void @_ZNSt7__cxx1112basic_stringIcSt11char_traitsIcESaIcEED1Ev(ptr noundef nonnull align 8 dereferenceable(32) %ref.tmp) #47
  br label %ehcleanup

ehcleanup:                                        ; preds = %lpad8.body, %lpad4
  %.pn = phi { ptr, i32 } [ %eh.lpad-body10, %lpad8.body ], [ %3, %lpad4 ]
  call void @_ZNSt7__cxx1112basic_stringIcSt11char_traitsIcESaIcEED1Ev(ptr noundef nonnull align 8 dereferenceable(32) %ref.tmp1) #47
  br label %ehcleanup10

ehcleanup10:                                      ; preds = %lpad, %lpad.i, %ehcleanup
  %.pn.pn = phi { ptr, i32 } [ %.pn, %ehcleanup ], [ %2, %lpad ], [ %0, %lpad.i ]
  call void @_ZNSt7__cxx1112basic_stringIcSt11char_traitsIcESaIcEED1Ev(ptr noundef nonnull align 8 dereferenceable(32) %dir) #47
  resume { ptr, i32 } %.pn.pn

return:                                           ; preds = %invoke.cont9, %if.then
  ret void
}